(dp0
S'rod.hayslett@enron.com'
p1
I790
scnumpy.core.multiarray
scalar
p2
(cnumpy
dtype
p3
(S'S20'
p4
I0
I1
tp5
Rp6
(I3
S'|'
p7
NNNI20
I1
I0
tp8
bS'dana.davis@enron.com'
p9
tp10
Rp11
I331
sS'david.w.delainey@enron.com'
p12
I798
sg2
(g3
(S'S23'
p13
I0
I1
tp14
Rp15
(I3
S'|'
p16
NNNI23
I1
I0
tp17
bS'jeff.skilling@enron.com'
p18
tp19
Rp20
I157
sg2
(g3
(S'S25'
p21
I0
I1
tp22
Rp23
(I3
S'|'
p24
NNNI25
I1
I0
tp25
bS'kimberly.watson@enron.com'
p26
tp27
Rp28
I1516
sS'l..gay@enron.com'
p29
I509
sS'gerald.nemec@enron.com'
p30
I1107
sS'albert.meyers@enron.com'
p31
I37
sg2
(g3
(S'S27'
p32
I0
I1
tp33
Rp34
(I3
S'|'
p35
NNNI27
I1
I0
tp36
bS'scott.hendrickson@enron.com'
p37
tp38
Rp39
I199
sS'richard.shapiro@enron.com'
p40
I3785
sS'steven.p.south@enron.com'
p41
I463
sS'carol.clair@enron.com'
p42
I1822
sg2
(g3
(S'S23'
p43
I0
I1
tp44
Rp45
(I3
S'|'
p46
NNNI23
I1
I0
tp47
bS'jeff.dasovich@enron.com'
p48
tp49
Rp50
I4533
sS'mike.maggi@enron.com'
p51
I344
sS'shelley.corman@enron.com'
p52
I896
sS'craig.dean@enron.com'
p53
I72
sS'hunter.s.shively@enron.com'
p54
I570
sS'sandra.f.brawner@enron.com'
p55
I266
sS'michelle.lokay@enron.com'
p56
I1309
sS'james.derrick@enron.com'
p57
I231
sS'mark.guzman@enron.com'
p58
I74
sS'andrea.ring@enron.com'
p59
I137
sS'darrell.schoolcraft@enron.com'
p60
I305
sS'scott.neal@enron.com'
p61
I596
sS'jim.schwieger@enron.com'
p62
I186
sS'eric.bass@enron.com'
p63
I783
sg2
(g3
(S'S26'
p64
I0
I1
tp65
Rp66
(I3
S'|'
p67
NNNI26
I1
I0
tp68
bS'larry.f.campbell@enron.com'
p69
tp70
Rp71
I194
sS'lynn.blair@enron.com'
p72
I1334
sS'm..forney@enron.com'
p73
I247
sS'monique.sanchez@enron.com'
p74
I389
sS'stacey.w.white@enron.com'
p75
I295
sS'rick.buy@enron.com'
p76
I416
sS'debra.perlingiere@enron.com'
p77
I895
sS'matt.smith@enron.com'
p78
I452
sS'michelle.cash@enron.com'
p79
I229
sS'ryan.slinger@enron.com'
p80
I89
sS'thomas.a.martin@enron.com'
p81
I395
sS'stanley.horton@enron.com'
p82
I341
sS'jeffrey.a.shankman@enron.com'
p83
I457
sg2
(g3
(S'S20'
p84
I0
I1
tp85
Rp86
(I3
S'|'
p87
NNNI20
I1
I0
tp88
bS'liz.taylor@enron.com'
p89
tp90
Rp91
I260
sS'jason.williams@enron.com'
p92
I884
sg2
(g3
(S'S24'
p93
I0
I1
tp94
Rp95
(I3
S'|'
p96
NNNI24
I1
I0
tp97
bS'robin.rodrigue@enron.com'
p98
tp99
Rp100
I41
sS'stacy.dickson@enron.com'
p101
I750
sS'kay.mann@enron.com'
p102
I584
sg2
(g3
(S'S24'
p103
I0
I1
tp104
Rp105
(I3
S'|'
p106
NNNI24
I1
I0
tp107
bS'diana.scholtes@enron.com'
p108
tp109
Rp110
I280
sS'bill.williams@enron.com'
p111
I187
sS'john.arnold@enron.com'
p112
I885
sg2
(g3
(S'S22'
p113
I0
I1
tp114
Rp115
(I3
S'|'
p116
NNNI22
I1
I0
tp117
bS'lindy.donoho@enron.com'
p118
tp119
Rp120
I816
sS'robert.benson@enron.com'
p121
I122
sS'mike.swerzbin@enron.com'
p122
I170
sS'dan.hyvl@enron.com'
p123
I505
sS'mike.carson@enron.com'
p124
I128
sS'kenneth.lay@enron.com'
p125
I238
sS'richard.b.sanders@enron.com'
p126
I1766
sS'elizabeth.sager@enron.com'
p127
I1135
sS'lavorato@enron.com'
p128
I138
sS'jane.tholt@enron.com'
p129
I704
sS'geoff.storey@enron.com'
p130
I220
sS'monika.causholli@enron.com'
p131
I22
sS'louise.kitchen@enron.com'
p132
I1741
sS'andy.zipper@enron.com'
p133
I445
sS'e..haedicke@enron.com'
p134
I943
sS'larry.may@enron.com'
p135
I302
sS'peter.keavey@enron.com'
p136
I133
sS'susan.bailey@enron.com'
p137
I1629
sS'lisa.gang@enron.com'
p138
I78
sS'john.hodge@enron.com'
p139
I143
sg2
(g3
(S'S22'
p140
I0
I1
tp141
Rp142
(I3
S'|'
p143
NNNI22
I1
I0
tp144
bS'don.baughman@enron.com'
p145
tp146
Rp147
I188
sg2
(g3
(S'S18'
p148
I0
I1
tp149
Rp150
(I3
S'|'
p151
NNNI18
I1
I0
tp152
bS'kim.ward@enron.com'
p153
tp154
Rp155
I799
sS'matt.motley@enron.com'
p156
I89
sS'keith.holst@enron.com'
p157
I629
sS'harry.arora@enron.com'
p158
I132
sg2
(g3
(S'S24'
p159
I0
I1
tp160
Rp161
(I3
S'|'
p162
NNNI24
I1
I0
tp163
bS'kevin.m.presto@enron.com'
p164
tp165
Rp166
I738
sS'mike.grigsby@enron.com'
p167
I1242
sS'john.griffith@enron.com'
p168
I340
sS'j.kaminski@enron.com'
p169
I5945
sS'richard.ring@enron.com'
p170
I41
sg2
(g3
(S'S28'
p171
I0
I1
tp172
Rp173
(I3
S'|'
p174
NNNI28
I1
I0
tp175
bS'doug.gilbert-smith@enron.com'
p176
tp177
Rp178
I330
sS'kam.keiser@enron.com'
p179
I518
sg2
(g3
(S'S23'
p180
I0
I1
tp181
Rp182
(I3
S'|'
p183
NNNI23
I1
I0
tp184
bS'cooper.richey@enron.com'
p185
tp186
Rp187
I96
sS'vladi.pimenov@enron.com'
p188
I90
sS'chris.germany@enron.com'
p189
I1029
sS'eric.linder@enron.com'
p190
I40
sS'dutch.quigley@enron.com'
p191
I485
sS'jeff.king@enron.com'
p192
I102
sg2
(g3
(S'S23'
p193
I0
I1
tp194
Rp195
(I3
S'|'
p196
NNNI23
I1
I0
tp197
bS'chris.stokley@enron.com'
p198
tp199
Rp200
I59
sS'geir.solberg@enron.com'
p201
I99
sg2
(g3
(S'S20'
p202
I0
I1
tp203
Rp204
(I3
S'|'
p205
NNNI20
I1
I0
tp206
bS'joe.quenet@enron.com'
p207
tp208
Rp209
I35
sS'james.d.steffes@enron.com'
p210
I4092
sS'marie.heard@enron.com'
p211
I1474
sg2
(g3
(S'S25'
p212
I0
I1
tp213
Rp214
(I3
S'|'
p215
NNNI25
I1
I0
tp216
bS'tori.kuykendall@enron.com'
p217
tp218
Rp219
I514
sS'patrice.l.mims@enron.com'
p220
I150
sg2
(g3
(S'S23'
p221
I0
I1
tp222
Rp223
(I3
S'|'
p224
NNNI23
I1
I0
tp225
bS'mark.e.taylor@enron.com'
p226
tp227
Rp228
I3199
sS'jay.reitmeyer@enron.com'
p229
I669
sS'juan.hernandez@enron.com'
p230
I125
sg2
(g3
(S'S21'
p231
I0
I1
tp232
Rp233
(I3
S'|'
p234
NNNI21
I1
I0
tp235
bS'kevin.hyatt@enron.com'
p236
tp237
Rp238
I590
sS'holden.salisbury@enron.com'
p239
I124
sS'john.zufferli@enron.com'
p240
I208
sS'matthew.lenhart@enron.com'
p241
I1440
sS'mary.fischer@enron.com'
p242
I2
sS'benjamin.rogers@enron.com'
p243
I99
sS'sean.crandall@enron.com'
p244
I225
sS'bill.rapp@enron.com'
p245
I263
sS'paul.y barbo@enron.com'
p246
I495
sS'brad.mckay@enron.com'
p247
I137
sS'kevin.ruscitti@enron.com'
p248
I81
sg2
(g3
(S'S20'
p249
I0
I1
tp250
Rp251
(I3
S'|'
p252
NNNI20
I1
I0
tp253
bS'paul.lucci@enron.com'
p254
tp255
Rp256
I411
sS'judy.townsend@enron.com'
p257
I414
sS'joe.parks@enron.com'
p258
I162
sS'sara.shackleton@enron.com'
p259
I3699
sS'charles.weldon@enron.com'
p260
I114
sg2
(g3
(S'S20'
p261
I0
I1
tp262
Rp263
(I3
S'|'
p264
NNNI20
I1
I0
tp265
bS'kate.symes@enron.com'
p266
tp267
Rp268
I211
sS'eric.saibi@enron.com'
p269
I168
sg2
(g3
(S'S25'
p270
I0
I1
tp271
Rp272
(I3
S'|'
p273
NNNI25
I1
I0
tp274
bS'susan.w.pereira@enron.com'
p275
tp276
Rp277
I27
sS'mark.mcconnell@enron.com'
p278
I602
sS'susan.scott@enron.com'
p279
I1421
sS'robert.badeer@enron.com'
p280
I472
sS'stephanie.panus@enron.com'
p281
I1192
sS'tom.donohoe@enron.com'
p282
I36
sS'phillip.k.ellen@enron.com'
p283
I1008
sS'joe.stepenovitch@enron.com'
p284
I125
sS'tracy.geaccone@enron.com'
p285
I643
sS'jonathan.mckay@enron.com'
p286
I210
sS'teb.lokey@enron.com'
p287
I300
sS'drew.fossum@enron.com'
p288
I722
sg2
(g3
(S'S19'
p289
I0
I1
tp290
Rp291
(I3
S'|'
p292
NNNI19
I1
I0
tp293
bS'mary.hain@enron.com'
p294
tp295
Rp296
I749
sS'paul.d.thomas@enron.com'
p297
I100
sS'chris.dorland@enron.com'
p298
I176
sS'frank.ermis@enron.com'
p299
I429
sS'daren.j.farmer@enron.com'
p300
I106
sS'phillip.platter@enron.com'
p301
I42
sS'sally.beck@enron.com'
p302
I503
sS'mark.whitt@enron.com'
p303
I674
sS'theresa.staab@enron.com'
p304
I165
sS'tana.jones@enron.com'
p305
I3247
sg2
(g3
(S'S24'
p306
I0
I1
tp307
Rp308
(I3
S'|'
p309
NNNI24
I1
I0
tp310
bS'cara.semperger@enron.com'
p311
tp312
Rp313
I245
sS'martin.cuilla@enron.com'
p314
I166
sS'steven.j.kean@enron.com'
p315
I3270
sS'phillip.m.love@enron.com'
p316
I615
sS'errol.mclaughlin@enron.com'
p317
I545
sS'steven.harris@enron.com'
p318
I1470
sS'jason.wolfe@enron.com'
p319
I423
sS'fletcher.j.sturm@enron.com'
p320
I331
sS'greg.whalley@enron.com'
p321
I823
sS'barry.tycholiz@enron.com'
p322
I1414
sS'steven.merris@enron.com'
p323
I35
sS'danny.mccarty@enron.com'
p324
I291
s.